target datalayout = "e-m:e-p270:32:32-p271:32:32-p272:64:64-i64:64-i128:128-f80:128-n8:16:32:64-S128"
target triple = "x86_64-pc-linux-gnu"

%class.btMultiBodyDynamicsWorld = type { %class.btDiscreteDynamicsWorld.base, [4 x i8], %class.btAlignedObjectArray.8, %class.btAlignedObjectArray.10, %class.btAlignedObjectArray.10, ptr, ptr, %class.btAlignedObjectArray.12, %class.btAlignedObjectArray.14, %class.btAlignedObjectArray.12, %class.btAlignedObjectArray.14, %class.btAlignedObjectArray.16, %class.btAlignedObjectArray.14, %class.btAlignedObjectArray.18 }
%class.btDiscreteDynamicsWorld.base = type <{ %class.btDynamicsWorld, %class.btAlignedObjectArray.0, ptr, ptr, ptr, %class.btAlignedObjectArray.0, %class.btAlignedObjectArray.2, %class.btVector3, float, float, i8, i8, i8, i8, [4 x i8], %class.btAlignedObjectArray.4, i32, i8, [3 x i8], %class.btAlignedObjectArray.6, %class.btSpinMutex }>
%class.btDynamicsWorld = type { %class.btCollisionWorld.base, ptr, ptr, ptr, %struct.btContactSolverInfo }
%class.btCollisionWorld.base = type <{ ptr, %class.btAlignedObjectArray, ptr, %struct.btDispatcherInfo, ptr, ptr, i8 }>
%class.btAlignedObjectArray = type <{ [4 x i8], i32, i32, [4 x i8], ptr, i8, [7 x i8] }>
%struct.btDispatcherInfo = type <{ float, i32, i32, float, i8, [7 x i8], ptr, i8, i8, i8, i8, float, i8, [3 x i8], float, i8, [7 x i8] }>
%struct.btContactSolverInfo = type { %struct.btContactSolverInfoData }
%struct.btContactSolverInfoData = type { float, float, float, float, float, i32, float, float, float, float, float, float, float, float, float, float, i32, float, float, float, float, float, i32, i32, i32, float, float, float, float, i8, i8, i32, i32 }
%class.btAlignedObjectArray.0 = type <{ [4 x i8], i32, i32, [4 x i8], ptr, i8, [7 x i8] }>
%class.btAlignedObjectArray.2 = type <{ [4 x i8], i32, i32, [4 x i8], ptr, i8, [7 x i8] }>
%class.btVector3 = type { [4 x float] }
%class.btAlignedObjectArray.4 = type <{ [4 x i8], i32, i32, [4 x i8], ptr, i8, [7 x i8] }>
%class.btAlignedObjectArray.6 = type <{ [4 x i8], i32, i32, [4 x i8], ptr, i8, [7 x i8] }>
%class.btSpinMutex = type { i32 }
%class.btAlignedObjectArray.8 = type <{ [4 x i8], i32, i32, [4 x i8], ptr, i8, [7 x i8] }>
%class.btAlignedObjectArray.10 = type <{ [4 x i8], i32, i32, [4 x i8], ptr, i8, [7 x i8] }>
%class.btAlignedObjectArray.12 = type <{ [4 x i8], i32, i32, [4 x i8], ptr, i8, [7 x i8] }>
%class.btAlignedObjectArray.16 = type <{ [4 x i8], i32, i32, [4 x i8], ptr, i8, [7 x i8] }>
%class.btAlignedObjectArray.14 = type <{ [4 x i8], i32, i32, [4 x i8], ptr, i8, [7 x i8] }>
%class.btAlignedObjectArray.18 = type <{ [4 x i8], i32, i32, [4 x i8], ptr, i8, [7 x i8] }>
%class.btQuaternion = type { %class.btQuadWord }
%class.btQuadWord = type { [4 x float] }
%struct.btMultibodyLink = type { float, %class.btVector3, i32, %class.btQuaternion, %class.btVector3, %class.btVector3, %struct.btSpatialMotionVector, %struct.btSpatialMotionVector, [6 x %struct.btSpatialMotionVector], i32, i32, %class.btQuaternion, %class.btVector3, %class.btQuaternion, %class.btVector3, %class.btVector3, %class.btVector3, %class.btVector3, %class.btVector3, [7 x float], [7 x float], [6 x float], ptr, i32, i32, i32, i32, ptr, %class.btTransform, ptr, ptr, ptr, float, float, float, float, float, float }
%struct.btSpatialMotionVector = type { %class.btVector3, %class.btVector3 }
%class.btTransform = type { %class.btMatrix3x3, %class.btVector3 }
%class.btMatrix3x3 = type { [3 x %class.btVector3] }
%class.btCollisionObject = type <{ ptr, %class.btTransform, %class.btTransform, %class.btVector3, %class.btVector3, %class.btVector3, i32, float, ptr, ptr, ptr, ptr, i32, i32, i32, i32, i32, float, float, float, float, float, float, float, i32, [4 x i8], ptr, i32, i32, i32, float, float, float, i32, [4 x i8], %class.btAlignedObjectArray.24, i32, %class.btVector3, [4 x i8] }>
%class.btAlignedObjectArray.24 = type <{ [4 x i8], i32, i32, [4 x i8], ptr, i8, [7 x i8] }>
%class.btMultiBody = type { ptr, ptr, ptr, %class.btVector3, %class.btVector3, %class.btQuaternion, %class.btQuaternion, float, %class.btVector3, %class.btVector3, %class.btVector3, %class.btVector3, %class.btVector3, [4 x i8], %class.btAlignedObjectArray.27, %class.btAlignedObjectArray.16, %class.btAlignedObjectArray.16, %class.btAlignedObjectArray.16, %class.btAlignedObjectArray.14, %class.btAlignedObjectArray.18, %class.btMatrix3x3, %class.btMatrix3x3, %class.btMatrix3x3, %class.btMatrix3x3, i8, i8, i8, i8, i8, float, float, float, ptr, i32, i32, i32, float, float, i8, float, float, i8, i8, i32, i32, i8, i8, i8, i8 }
%class.btAlignedObjectArray.27 = type <{ [4 x i8], i32, i32, [4 x i8], ptr, i8, [7 x i8] }>

; Function Attrs: inlinehint mustprogress nounwind uwtable
define linkonce_odr dso_local noundef nonnull align 8 dereferenceable(688) ptr @_ZN20btAlignedObjectArrayI15btMultibodyLinkEixEi(ptr noundef nonnull align 8 dereferenceable(25) %0, i32 noundef %1) #6 comdat align 2 {
  %3 = alloca ptr, align 8
  %4 = alloca i32, align 4
  store ptr %0, ptr %3, align 8, !tbaa !309
  store i32 %1, ptr %4, align 4, !tbaa !9
  %5 = load ptr, ptr %3, align 8
  %6 = getelementptr inbounds nuw %class.btAlignedObjectArray.27, ptr %5, i32 0, i32 4
  %7 = load ptr, ptr %6, align 8, !tbaa !312
  %8 = load i32, ptr %4, align 4, !tbaa !9
  %9 = sext i32 %8 to i64
  %10 = getelementptr inbounds %struct.btMultibodyLink, ptr %7, i64 %9
  ret ptr %10
}

; Function Attrs: inlinehint mustprogress nounwind uwtable
define linkonce_odr dso_local noundef i32 @_ZNK20btAlignedObjectArrayI15btMultibodyLinkE4sizeEv(ptr noundef nonnull align 8 dereferenceable(25) %0) #6 comdat align 2 {
  %2 = alloca ptr, align 8
  store ptr %0, ptr %2, align 8, !tbaa !309
  %3 = load ptr, ptr %2, align 8
  %4 = getelementptr inbounds nuw %class.btAlignedObjectArray.27, ptr %3, i32 0, i32 1
  %5 = load i32, ptr %4, align 4, !tbaa !311
  ret i32 %5
}

; Function Attrs: mustprogress uwtable
define linkonce_odr dso_local noundef nonnull align 8 dereferenceable(688) ptr @_ZN11btMultiBody7getLinkEi(ptr noundef nonnull align 8 dereferenceable(640) %0, i32 noundef %1) #2 comdat align 2 {
  %3 = alloca ptr, align 8
  %4 = alloca i32, align 4
  store ptr %0, ptr %3, align 8, !tbaa !14
  store i32 %1, ptr %4, align 4, !tbaa !9
  %5 = load ptr, ptr %3, align 8
  %6 = getelementptr inbounds nuw %class.btMultiBody, ptr %5, i32 0, i32 14
  %7 = load i32, ptr %4, align 4, !tbaa !9
  %8 = call noundef nonnull align 8 dereferenceable(688) ptr @_ZN20btAlignedObjectArrayI15btMultibodyLinkEixEi(ptr noundef nonnull align 8 dereferenceable(25) %6, i32 noundef %7)
  ret ptr %8
}

; Function Attrs: mustprogress uwtable
define linkonce_odr dso_local noundef i32 @_ZNK11btMultiBody11getNumLinksEv(ptr noundef nonnull align 8 dereferenceable(640) %0) #2 comdat align 2 {
  %2 = alloca ptr, align 8
  store ptr %0, ptr %2, align 8, !tbaa !14
  %3 = load ptr, ptr %2, align 8
  %4 = getelementptr inbounds nuw %class.btMultiBody, ptr %3, i32 0, i32 14
  %5 = call noundef i32 @_ZNK20btAlignedObjectArrayI15btMultibodyLinkE4sizeEv(ptr noundef nonnull align 8 dereferenceable(25) %4)
  ret i32 %5
}

; Function Attrs: inlinehint mustprogress nounwind uwtable
define linkonce_odr dso_local noundef i32 @_ZNK17btCollisionObject18getActivationStateEv(ptr noundef nonnull align 8 dereferenceable(372) %0) #6 comdat align 2 {
  %2 = alloca ptr, align 8
  store ptr %0, ptr %2, align 8, !tbaa !49
  %3 = load ptr, ptr %2, align 8
  %4 = getelementptr inbounds nuw %class.btCollisionObject, ptr %3, i32 0, i32 16
  %5 = load i32, ptr %4, align 8, !tbaa !152
  ret i32 %5
}

; Function Attrs: mustprogress nounwind uwtable
define linkonce_odr dso_local noundef ptr @_ZN11btMultiBody15getBaseColliderEv(ptr noundef nonnull align 8 dereferenceable(640) %0) #1 comdat align 2 {
  %2 = alloca ptr, align 8
  store ptr %0, ptr %2, align 8, !tbaa !14
  %3 = load ptr, ptr %2, align 8
  %4 = getelementptr inbounds nuw %class.btMultiBody, ptr %3, i32 0, i32 1
  %5 = load ptr, ptr %4, align 8, !tbaa !127
  ret ptr %5
}

; Function Attrs: inlinehint mustprogress nounwind uwtable
define linkonce_odr dso_local noundef nonnull align 8 dereferenceable(8) ptr @_ZN20btAlignedObjectArrayIP11btMultiBodyEixEi(ptr noundef nonnull align 8 dereferenceable(25) %0, i32 noundef %1) #6 comdat align 2 {
  %3 = alloca ptr, align 8
  %4 = alloca i32, align 4
  store ptr %0, ptr %3, align 8, !tbaa !16
  store i32 %1, ptr %4, align 4, !tbaa !9
  %5 = load ptr, ptr %3, align 8
  %6 = getelementptr inbounds nuw %class.btAlignedObjectArray.8, ptr %5, i32 0, i32 4
  %7 = load ptr, ptr %6, align 8, !tbaa !20
  %8 = load i32, ptr %4, align 4, !tbaa !9
  %9 = sext i32 %8 to i64
  %10 = getelementptr inbounds ptr, ptr %7, i64 %9
  ret ptr %10
}

; Function Attrs: inlinehint mustprogress nounwind uwtable
define linkonce_odr dso_local noundef i32 @_ZNK20btAlignedObjectArrayIP11btMultiBodyE4sizeEv(ptr noundef nonnull align 8 dereferenceable(25) %0) #6 comdat align 2 {
  %2 = alloca ptr, align 8
  store ptr %0, ptr %2, align 8, !tbaa !16
  %3 = load ptr, ptr %2, align 8
  %4 = getelementptr inbounds nuw %class.btAlignedObjectArray.8, ptr %3, i32 0, i32 1
  %5 = load i32, ptr %4, align 4, !tbaa !24
  ret i32 %5
}

; Function Attrs: mustprogress uwtable
define dso_local void @_ZN24btMultiBodyDynamicsWorld20clearMultiBodyForcesEv(ptr noundef nonnull align 8 dereferenceable(848) %0) unnamed_addr #2 align 2 {
  %2 = alloca ptr, align 8
  %3 = alloca i32, align 4
  %4 = alloca i32, align 4
  %5 = alloca ptr, align 8
  %6 = alloca i8, align 1
  %7 = alloca i32, align 4
  %8 = alloca ptr, align 8
  store ptr %0, ptr %2, align 8, !tbaa !12
  %9 = load ptr, ptr %2, align 8
  call void @llvm.lifetime.start.p0(i64 4, ptr %3) #16
  store i32 0, ptr %3, align 4, !tbaa !9
  br label %10

10:                                               ; preds = %67, %1
  %11 = load i32, ptr %3, align 4, !tbaa !9
  %12 = getelementptr inbounds nuw %class.btMultiBodyDynamicsWorld, ptr %9, i32 0, i32 2
  %13 = call noundef i32 @_ZNK20btAlignedObjectArrayIP11btMultiBodyE4sizeEv(ptr noundef nonnull align 8 dereferenceable(25) %12)
  %14 = icmp slt i32 %11, %13
  br i1 %14, label %16, label %15

15:                                               ; preds = %10
  store i32 2, ptr %4, align 4
  call void @llvm.lifetime.end.p0(i64 4, ptr %3) #16
  br label %70

16:                                               ; preds = %10
  call void @llvm.lifetime.start.p0(i64 8, ptr %5) #16
  %17 = getelementptr inbounds nuw %class.btMultiBodyDynamicsWorld, ptr %9, i32 0, i32 2
  %18 = load i32, ptr %3, align 4, !tbaa !9
  %19 = call noundef nonnull align 8 dereferenceable(8) ptr @_ZN20btAlignedObjectArrayIP11btMultiBodyEixEi(ptr noundef nonnull align 8 dereferenceable(25) %17, i32 noundef %18)
  %20 = load ptr, ptr %19, align 8, !tbaa !14
  store ptr %20, ptr %5, align 8, !tbaa !14
  call void @llvm.lifetime.start.p0(i64 1, ptr %6) #16
  store i8 0, ptr %6, align 1, !tbaa !27
  %21 = load ptr, ptr %5, align 8, !tbaa !14
  %22 = call noundef ptr @_ZN11btMultiBody15getBaseColliderEv(ptr noundef nonnull align 8 dereferenceable(640) %21)
  %23 = icmp ne ptr %22, null
  br i1 %23, label %24, label %30

24:                                               ; preds = %16
  %25 = load ptr, ptr %5, align 8, !tbaa !14
  %26 = call noundef ptr @_ZN11btMultiBody15getBaseColliderEv(ptr noundef nonnull align 8 dereferenceable(640) %25)
  %27 = call noundef i32 @_ZNK17btCollisionObject18getActivationStateEv(ptr noundef nonnull align 8 dereferenceable(372) %26)
  %28 = icmp eq i32 %27, 2
  br i1 %28, label %29, label %30

29:                                               ; preds = %24
  store i8 1, ptr %6, align 1, !tbaa !27
  br label %30

30:                                               ; preds = %29, %24, %16
  call void @llvm.lifetime.start.p0(i64 4, ptr %7) #16
  store i32 0, ptr %7, align 4, !tbaa !9
  br label %31

31:                                               ; preds = %54, %30
  %32 = load i32, ptr %7, align 4, !tbaa !9
  %33 = load ptr, ptr %5, align 8, !tbaa !14
  %34 = call noundef i32 @_ZNK11btMultiBody11getNumLinksEv(ptr noundef nonnull align 8 dereferenceable(640) %33)
  %35 = icmp slt i32 %32, %34
  br i1 %35, label %37, label %36

36:                                               ; preds = %31
  store i32 5, ptr %4, align 4
  call void @llvm.lifetime.end.p0(i64 4, ptr %7) #16
  br label %57

37:                                               ; preds = %31
  %38 = load ptr, ptr %5, align 8, !tbaa !14
  %39 = load i32, ptr %7, align 4, !tbaa !9
  %40 = call noundef nonnull align 8 dereferenceable(688) ptr @_ZN11btMultiBody7getLinkEi(ptr noundef nonnull align 8 dereferenceable(640) %38, i32 noundef %39)
  %41 = getelementptr inbounds nuw %struct.btMultibodyLink, ptr %40, i32 0, i32 22
  %42 = load ptr, ptr %41, align 8, !tbaa !28
  %43 = icmp ne ptr %42, null
  br i1 %43, label %44, label %53

44:                                               ; preds = %37
  %45 = load ptr, ptr %5, align 8, !tbaa !14
  %46 = load i32, ptr %7, align 4, !tbaa !9
  %47 = call noundef nonnull align 8 dereferenceable(688) ptr @_ZN11btMultiBody7getLinkEi(ptr noundef nonnull align 8 dereferenceable(640) %45, i32 noundef %46)
  %48 = getelementptr inbounds nuw %struct.btMultibodyLink, ptr %47, i32 0, i32 22
  %49 = load ptr, ptr %48, align 8, !tbaa !28
  %50 = call noundef i32 @_ZNK17btCollisionObject18getActivationStateEv(ptr noundef nonnull align 8 dereferenceable(372) %49)
  %51 = icmp eq i32 %50, 2
  br i1 %51, label %52, label %53

52:                                               ; preds = %44
  store i8 1, ptr %6, align 1, !tbaa !27
  br label %53

53:                                               ; preds = %52, %44, %37
  br label %54

54:                                               ; preds = %53
  %55 = load i32, ptr %7, align 4, !tbaa !9
  %56 = add nsw i32 %55, 1
  store i32 %56, ptr %7, align 4, !tbaa !9
  br label %31, !llvm.loop !283

57:                                               ; preds = %36
  %58 = load i8, ptr %6, align 1, !tbaa !27, !range !42, !noundef !43
  %59 = trunc i8 %58 to i1
  br i1 %59, label %66, label %60

60:                                               ; preds = %57
  call void @llvm.lifetime.start.p0(i64 8, ptr %8) #16
  %61 = getelementptr inbounds nuw %class.btMultiBodyDynamicsWorld, ptr %9, i32 0, i32 2
  %62 = load i32, ptr %3, align 4, !tbaa !9
  %63 = call noundef nonnull align 8 dereferenceable(8) ptr @_ZN20btAlignedObjectArrayIP11btMultiBodyEixEi(ptr noundef nonnull align 8 dereferenceable(25) %61, i32 noundef %62)
  %64 = load ptr, ptr %63, align 8, !tbaa !14
  store ptr %64, ptr %8, align 8, !tbaa !14
  %65 = load ptr, ptr %8, align 8, !tbaa !14
  call void @_ZN11btMultiBody21clearForcesAndTorquesEv(ptr noundef nonnull align 8 dereferenceable(640) %65)
  call void @llvm.lifetime.end.p0(i64 8, ptr %8) #16
  br label %66

66:                                               ; preds = %60, %57
  call void @llvm.lifetime.end.p0(i64 1, ptr %6) #16
  call void @llvm.lifetime.end.p0(i64 8, ptr %5) #16
  br label %67

67:                                               ; preds = %66
  %68 = load i32, ptr %3, align 4, !tbaa !9
  %69 = add nsw i32 %68, 1
  store i32 %69, ptr %3, align 4, !tbaa !9
  br label %10, !llvm.loop !284

70:                                               ; preds = %15
  ret void
}