; Function Attrs: mustprogress uwtable
define dso_local void @_ZN24btMultiBodyDynamicsWorld20clearMultiBodyForcesEv(ptr noundef nonnull readonly align 8 captures(none) dereferenceable(848) %0) unnamed_addr #0 align 2 {
  %2 = getelementptr inbounds nuw i8, ptr %0, i64 516
  %3 = load i32, ptr %2, align 4, !tbaa !4
  %4 = icmp sgt i32 %3, 0
  br i1 %4, label %.lr.ph23, label %._crit_edge24

.lr.ph23:                                         ; preds = %1
  %5 = getelementptr inbounds nuw i8, ptr %0, i64 528
  br label %6

._crit_edge24:                                    ; preds = %32, %1
  ret void

6:                                                ; preds = %.lr.ph23, %32
  %7 = phi i32 [ %3, %.lr.ph23 ], [ %33, %32 ]
  %indvars.iv25 = phi i64 [ 0, %.lr.ph23 ], [ %indvars.iv.next26, %32 ]
  %8 = load ptr, ptr %5, align 8, !tbaa !14
  %9 = getelementptr inbounds nuw ptr, ptr %8, i64 %indvars.iv25
  %10 = load ptr, ptr %9, align 8, !tbaa !15
  %11 = getelementptr inbounds nuw i8, ptr %10, i64 8
  %12 = load ptr, ptr %11, align 8, !tbaa !23
  %.not = icmp eq ptr %12, null
  br i1 %.not, label %17, label %13

13:                                               ; preds = %6
  %14 = getelementptr inbounds nuw i8, ptr %12, i64 240
  %15 = load i32, ptr %14, align 8, !tbaa !44
  %16 = icmp eq i32 %15, 2
  br label %17

17:                                               ; preds = %13, %6
  %.016 = phi i1 [ false, %6 ], [ %16, %13 ]
  %18 = getelementptr inbounds nuw i8, ptr %10, i64 180
  %19 = load i32, ptr %18, align 4, !tbaa !52
  %20 = icmp sgt i32 %19, 0
  br i1 %20, label %.lr.ph, label %._crit_edge

.lr.ph:                                           ; preds = %17
  %21 = getelementptr inbounds nuw i8, ptr %10, i64 192
  %22 = load ptr, ptr %21, align 8, !tbaa !53
  %wide.trip.count = zext nneg i32 %19 to i64
  br label %23

._crit_edge:                                      ; preds = %30, %17
  %.1.lcssa = phi i1 [ %.016, %17 ], [ %.2, %30 ]
  br i1 %.1.lcssa, label %32, label %31

23:                                               ; preds = %.lr.ph, %30
  %indvars.iv = phi i64 [ 0, %.lr.ph ], [ %indvars.iv.next, %30 ]
  %.119 = phi i1 [ %.016, %.lr.ph ], [ %.2, %30 ]
  %24 = getelementptr inbounds nuw %struct.btMultibodyLink, ptr %22, i64 %indvars.iv, i32 22
  %25 = load ptr, ptr %24, align 8, !tbaa !54
  %.not17 = icmp eq ptr %25, null
  br i1 %.not17, label %30, label %26

26:                                               ; preds = %23
  %27 = getelementptr inbounds nuw i8, ptr %25, i64 240
  %28 = load i32, ptr %27, align 8, !tbaa !44
  %29 = icmp eq i32 %28, 2
  %spec.select18 = select i1 %29, i1 true, i1 %.119
  br label %30

30:                                               ; preds = %26, %23
  %.2 = phi i1 [ %.119, %23 ], [ %spec.select18, %26 ]
  %indvars.iv.next = add nuw nsw i64 %indvars.iv, 1
  %exitcond.not = icmp eq i64 %indvars.iv.next, %wide.trip.count
  br i1 %exitcond.not, label %._crit_edge, label %23, !llvm.loop !246

31:                                               ; preds = %._crit_edge
  tail call void @_ZN11btMultiBody21clearForcesAndTorquesEv(ptr noundef nonnull align 8 dereferenceable(640) %10)
  %.pre = load i32, ptr %2, align 4, !tbaa !4
  br label %32

32:                                               ; preds = %31, %._crit_edge
  %33 = phi i32 [ %.pre, %31 ], [ %7, %._crit_edge ]
  %indvars.iv.next26 = add nuw nsw i64 %indvars.iv25, 1
  %34 = sext i32 %33 to i64
  %35 = icmp slt i64 %indvars.iv.next26, %34
  br i1 %35, label %6, label %._crit_edge24, !llvm.loop !247
}